; Function Attrs: mustprogress uwtable
define hidden noundef ptr @_ZN7pb_util13mk_at_least_kEjPKP4exprj(ptr noundef nonnull readonly align 8 captures(none) dereferenceable(64) %0, i32 noundef %1, ptr noundef %2, i32 noundef %3) local_unnamed_addr #3 align 2 personality ptr @__gxx_personality_v0 {
  %5 = alloca %class.parameter, align 8
  call void @llvm.lifetime.start.p0(i64 16, ptr nonnull %5) #22
  store i32 %3, ptr %5, align 8, !tbaa !97
  %6 = getelementptr inbounds nuw i8, ptr %5, i64 8
  store i8 0, ptr %6, align 8, !tbaa !84
  %7 = load ptr, ptr %0, align 8, !tbaa !149
  %8 = getelementptr inbounds nuw i8, ptr %0, i64 8
  %9 = load i32, ptr %8, align 8, !tbaa !153
  %10 = getelementptr inbounds nuw i8, ptr %7, i64 840
  %11 = load ptr, ptr %10, align 8, !tbaa !13
  %12 = invoke noundef ptr @_ZN11ast_manager6mk_appEiijPK9parameterjPKP4exprP4sort(ptr noundef nonnull align 8 dereferenceable(976) %7, i32 noundef %9, i32 noundef 1, i32 noundef 1, ptr noundef nonnull %5, i32 noundef %1, ptr noundef %2, ptr noundef %11)
          to label %13 unwind label %14

13:                                               ; preds = %4
  call void @_ZN9parameterD1Ev(ptr noundef nonnull align 8 dereferenceable(16) %5) #22
  call void @llvm.lifetime.end.p0(i64 16, ptr nonnull %5) #22
  ret ptr %12

14:                                               ; preds = %4
  %15 = landingpad { ptr, i32 }
          cleanup
  call void @_ZN9parameterD1Ev(ptr noundef nonnull align 8 dereferenceable(16) %5) #22
  call void @llvm.lifetime.end.p0(i64 16, ptr nonnull %5) #22
  resume { ptr, i32 } %15
}